; ModuleID = '55/1313.cpp'
source_filename = "55/1313.cpp"
target datalayout = "e-m:e-p270:32:32-p271:32:32-p272:64:64-i64:64-f80:128-n8:16:32:64-S128"
target triple = "x86_64-pc-linux-gnu"

%"class.std::ios_base::Init" = type { i8 }
%"class.std::basic_istream" = type { i32 (...)**, i64, %"class.std::basic_ios" }
%"class.std::basic_ios" = type { %"class.std::ios_base", %"class.std::basic_ostream"*, i8, i8, %"class.std::basic_streambuf"*, %"class.std::ctype"*, %"class.std::num_put"*, %"class.std::num_get"* }
%"class.std::ios_base" = type { i32 (...)**, i64, i64, i32, i32, i32, %"struct.std::ios_base::_Callback_list"*, %"struct.std::ios_base::_Words", [8 x %"struct.std::ios_base::_Words"], i32, %"struct.std::ios_base::_Words"*, %"class.std::locale" }
%"struct.std::ios_base::_Callback_list" = type { %"struct.std::ios_base::_Callback_list"*, void (i32, %"class.std::ios_base"*, i32)*, i32, i32 }
%"struct.std::ios_base::_Words" = type { i8*, i64 }
%"class.std::locale" = type { %"class.std::locale::_Impl"* }
%"class.std::locale::_Impl" = type { i32, %"class.std::locale::facet"**, i64, %"class.std::locale::facet"**, i8** }
%"class.std::locale::facet" = type <{ i32 (...)**, i32, [4 x i8] }>
%"class.std::basic_ostream" = type { i32 (...)**, %"class.std::basic_ios" }
%"class.std::basic_streambuf" = type { i32 (...)**, i8*, i8*, i8*, i8*, i8*, i8*, %"class.std::locale" }
%"class.std::ctype" = type <{ %"class.std::locale::facet.base", [4 x i8], %struct.__locale_struct*, i8, [7 x i8], i32*, i32*, i16*, i8, [256 x i8], [256 x i8], i8, [6 x i8] }>
%"class.std::locale::facet.base" = type <{ i32 (...)**, i32 }>
%struct.__locale_struct = type { [13 x %struct.__locale_data*], i16*, i32*, i32*, [13 x i8*] }
%struct.__locale_data = type opaque
%"class.std::num_put" = type { %"class.std::locale::facet.base", [4 x i8] }
%"class.std::num_get" = type { %"class.std::locale::facet.base", [4 x i8] }

@_ZStL8__ioinit = internal global %"class.std::ios_base::Init" zeroinitializer, align 1
@__dso_handle = external hidden global i8
@_ZSt3cin = external dso_local global %"class.std::basic_istream", align 8
@_ZSt4cout = external dso_local global %"class.std::basic_ostream", align 8
@llvm.global_ctors = appending global [1 x { i32, void ()*, i8* }] [{ i32, void ()*, i8* } { i32 65535, void ()* @_GLOBAL__sub_I_1313.cpp, i8* null }]

; Function Attrs: noinline uwtable
define internal void @__cxx_global_var_init() #0 section ".text.startup" {
  call void @_ZNSt8ios_base4InitC1Ev(%"class.std::ios_base::Init"* @_ZStL8__ioinit)
  %1 = call i32 @__cxa_atexit(void (i8*)* bitcast (void (%"class.std::ios_base::Init"*)* @_ZNSt8ios_base4InitD1Ev to void (i8*)*), i8* getelementptr inbounds (%"class.std::ios_base::Init", %"class.std::ios_base::Init"* @_ZStL8__ioinit, i32 0, i32 0), i8* @__dso_handle) #3
  ret void
}

declare dso_local void @_ZNSt8ios_base4InitC1Ev(%"class.std::ios_base::Init"*) unnamed_addr #1

; Function Attrs: nounwind
declare dso_local void @_ZNSt8ios_base4InitD1Ev(%"class.std::ios_base::Init"*) unnamed_addr #2

; Function Attrs: nounwind
declare dso_local i32 @__cxa_atexit(void (i8*)*, i8*, i8*) #3

; Function Attrs: noinline nounwind uwtable
define dso_local i32 @_Z8convert1c(i8 signext %0) #4 {
  %2 = alloca i32, align 4
  %3 = alloca i8, align 1
  store i8 %0, i8* %3, align 1
  %4 = load i8, i8* %3, align 1
  %5 = sext i8 %4 to i32
  %6 = icmp sge i32 %5, 48
  br i1 %6, label %7, label %15

7:                                                ; preds = %1
  %8 = load i8, i8* %3, align 1
  %9 = sext i8 %8 to i32
  %10 = icmp sle i32 %9, 57
  br i1 %10, label %11, label %15

11:                                               ; preds = %7
  %12 = load i8, i8* %3, align 1
  %13 = sext i8 %12 to i32
  %14 = sub nsw i32 %13, 48
  store i32 %14, i32* %2, align 4
  br label %42

15:                                               ; preds = %7, %1
  %16 = load i8, i8* %3, align 1
  %17 = sext i8 %16 to i32
  %18 = icmp sge i32 %17, 97
  br i1 %18, label %19, label %28

19:                                               ; preds = %15
  %20 = load i8, i8* %3, align 1
  %21 = sext i8 %20 to i32
  %22 = icmp sle i32 %21, 122
  br i1 %22, label %23, label %28

23:                                               ; preds = %19
  %24 = load i8, i8* %3, align 1
  %25 = sext i8 %24 to i32
  %26 = sub nsw i32 %25, 97
  %27 = add nsw i32 %26, 10
  store i32 %27, i32* %2, align 4
  br label %42

28:                                               ; preds = %19, %15
  %29 = load i8, i8* %3, align 1
  %30 = sext i8 %29 to i32
  %31 = icmp sge i32 %30, 65
  br i1 %31, label %32, label %41

32:                                               ; preds = %28
  %33 = load i8, i8* %3, align 1
  %34 = sext i8 %33 to i32
  %35 = icmp sle i32 %34, 90
  br i1 %35, label %36, label %41

36:                                               ; preds = %32
  %37 = load i8, i8* %3, align 1
  %38 = sext i8 %37 to i32
  %39 = sub nsw i32 %38, 65
  %40 = add nsw i32 %39, 10
  store i32 %40, i32* %2, align 4
  br label %42

41:                                               ; preds = %32, %28
  call void @llvm.trap()
  unreachable

42:                                               ; preds = %36, %23, %11
  %43 = load i32, i32* %2, align 4
  ret i32 %43
}

; Function Attrs: cold noreturn nounwind
declare void @llvm.trap() #5

; Function Attrs: noinline nounwind uwtable
define dso_local signext i8 @_Z8convert2i(i32 %0) #4 {
  %2 = alloca i8, align 1
  %3 = alloca i32, align 4
  store i32 %0, i32* %3, align 4
  %4 = load i32, i32* %3, align 4
  %5 = icmp sge i32 %4, 0
  br i1 %5, label %6, label %13

6:                                                ; preds = %1
  %7 = load i32, i32* %3, align 4
  %8 = icmp sle i32 %7, 9
  br i1 %8, label %9, label %13

9:                                                ; preds = %6
  %10 = load i32, i32* %3, align 4
  %11 = add nsw i32 %10, 48
  %12 = trunc i32 %11 to i8
  store i8 %12, i8* %2, align 1
  br label %17

13:                                               ; preds = %6, %1
  %14 = load i32, i32* %3, align 4
  %15 = add nsw i32 %14, 55
  %16 = trunc i32 %15 to i8
  store i8 %16, i8* %2, align 1
  br label %17

17:                                               ; preds = %13, %9
  %18 = load i8, i8* %2, align 1
  ret i8 %18
}

; Function Attrs: noinline norecurse uwtable
define dso_local i32 @main() #6 {
  %1 = alloca i32, align 4
  %2 = alloca i32, align 4
  %3 = alloca i32, align 4
  %4 = alloca i32, align 4
  %5 = alloca i32, align 4
  %6 = alloca i32, align 4
  %7 = alloca i32, align 4
  %8 = alloca i64, align 8
  %9 = alloca [100 x i8], align 16
  %10 = alloca i8, align 1
  %11 = alloca [100 x i32], align 16
  store i32 0, i32* %1, align 4
  store i32 1, i32* %5, align 4
  store i64 0, i64* %8, align 8
  %12 = call dereferenceable(280) %"class.std::basic_istream"* @_ZNSirsERi(%"class.std::basic_istream"* @_ZSt3cin, i32* dereferenceable(4) %2)
  %13 = getelementptr inbounds [100 x i8], [100 x i8]* %9, i64 0, i64 0
  %14 = call dereferenceable(280) %"class.std::basic_istream"* @_ZStrsIcSt11char_traitsIcEERSt13basic_istreamIT_T0_ES6_PS3_(%"class.std::basic_istream"* dereferenceable(280) %12, i8* %13)
  %15 = call dereferenceable(280) %"class.std::basic_istream"* @_ZNSirsERi(%"class.std::basic_istream"* %14, i32* dereferenceable(4) %3)
  %16 = getelementptr inbounds [100 x i8], [100 x i8]* %9, i64 0, i64 0
  %17 = call i64 @strlen(i8* %16) #8
  %18 = trunc i64 %17 to i32
  store i32 %18, i32* %4, align 4
  %19 = load i32, i32* %4, align 4
  %20 = sub nsw i32 %19, 1
  store i32 %20, i32* %6, align 4
  br label %21

21:                                               ; preds = %38, %0
  %22 = load i32, i32* %6, align 4
  %23 = icmp sge i32 %22, 0
  br i1 %23, label %24, label %41

24:                                               ; preds = %21
  %25 = load i64, i64* %8, align 8
  %26 = load i32, i32* %5, align 4
  %27 = load i32, i32* %6, align 4
  %28 = sext i32 %27 to i64
  %29 = getelementptr inbounds [100 x i8], [100 x i8]* %9, i64 0, i64 %28
  %30 = load i8, i8* %29, align 1
  %31 = call i32 @_Z8convert1c(i8 signext %30)
  %32 = mul nsw i32 %26, %31
  %33 = sext i32 %32 to i64
  %34 = add nsw i64 %25, %33
  store i64 %34, i64* %8, align 8
  %35 = load i32, i32* %5, align 4
  %36 = load i32, i32* %2, align 4
  %37 = mul nsw i32 %35, %36
  store i32 %37, i32* %5, align 4
  br label %38

38:                                               ; preds = %24
  %39 = load i32, i32* %6, align 4
  %40 = add nsw i32 %39, -1
  store i32 %40, i32* %6, align 4
  br label %21

41:                                               ; preds = %21
  store i32 1, i32* %6, align 4
  br label %42

42:                                               ; preds = %47, %41
  %43 = load i64, i64* %8, align 8
  %44 = load i32, i32* %3, align 4
  %45 = sext i32 %44 to i64
  %46 = icmp sge i64 %43, %45
  br i1 %46, label %47, label %62

47:                                               ; preds = %42
  %48 = load i64, i64* %8, align 8
  %49 = load i32, i32* %3, align 4
  %50 = sext i32 %49 to i64
  %51 = srem i64 %48, %50
  %52 = trunc i64 %51 to i32
  %53 = load i32, i32* %6, align 4
  %54 = sext i32 %53 to i64
  %55 = getelementptr inbounds [100 x i32], [100 x i32]* %11, i64 0, i64 %54
  store i32 %52, i32* %55, align 4
  %56 = load i32, i32* %6, align 4
  %57 = add nsw i32 %56, 1
  store i32 %57, i32* %6, align 4
  %58 = load i64, i64* %8, align 8
  %59 = load i32, i32* %3, align 4
  %60 = sext i32 %59 to i64
  %61 = sdiv i64 %58, %60
  store i64 %61, i64* %8, align 8
  br label %42

62:                                               ; preds = %42
  %63 = load i64, i64* %8, align 8
  %64 = trunc i64 %63 to i32
  %65 = load i32, i32* %6, align 4
  %66 = sext i32 %65 to i64
  %67 = getelementptr inbounds [100 x i32], [100 x i32]* %11, i64 0, i64 %66
  store i32 %64, i32* %67, align 4
  %68 = load i32, i32* %6, align 4
  store i32 %68, i32* %7, align 4
  br label %69

69:                                               ; preds = %80, %62
  %70 = load i32, i32* %7, align 4
  %71 = icmp sge i32 %70, 1
  br i1 %71, label %72, label %83

72:                                               ; preds = %69
  %73 = load i32, i32* %7, align 4
  %74 = sext i32 %73 to i64
  %75 = getelementptr inbounds [100 x i32], [100 x i32]* %11, i64 0, i64 %74
  %76 = load i32, i32* %75, align 4
  %77 = call signext i8 @_Z8convert2i(i32 %76)
  store i8 %77, i8* %10, align 1
  %78 = load i8, i8* %10, align 1
  %79 = call dereferenceable(272) %"class.std::basic_ostream"* @_ZStlsISt11char_traitsIcEERSt13basic_ostreamIcT_ES5_c(%"class.std::basic_ostream"* dereferenceable(272) @_ZSt4cout, i8 signext %78)
  br label %80

80:                                               ; preds = %72
  %81 = load i32, i32* %7, align 4
  %82 = add nsw i32 %81, -1
  store i32 %82, i32* %7, align 4
  br label %69

83:                                               ; preds = %69
  ret i32 0
}

declare dso_local dereferenceable(280) %"class.std::basic_istream"* @_ZStrsIcSt11char_traitsIcEERSt13basic_istreamIT_T0_ES6_PS3_(%"class.std::basic_istream"* dereferenceable(280), i8*) #1

declare dso_local dereferenceable(280) %"class.std::basic_istream"* @_ZNSirsERi(%"class.std::basic_istream"*, i32* dereferenceable(4)) #1

; Function Attrs: nounwind readonly
declare dso_local i64 @strlen(i8*) #7

declare dso_local dereferenceable(272) %"class.std::basic_ostream"* @_ZStlsISt11char_traitsIcEERSt13basic_ostreamIcT_ES5_c(%"class.std::basic_ostream"* dereferenceable(272), i8 signext) #1

; Function Attrs: noinline uwtable
define internal void @_GLOBAL__sub_I_1313.cpp() #0 section ".text.startup" {
  call void @__cxx_global_var_init()
  ret void
}


!llvm.module.flags = !{!0}
!llvm.ident = !{!1}

!0 = !{i32 1, !"wchar_size", i32 4}
!1 = !{!"clang version 10.0.0-4ubuntu1 "}
