; ModuleID = 'source-C-CXX/54/1313.cpp'
source_filename = "source-C-CXX/54/1313.cpp"
target datalayout = "e-m:e-p270:32:32-p271:32:32-p272:64:64-i64:64-f80:128-n8:16:32:64-S128"
target triple = "x86_64-pc-linux-gnu"

%"class.std::ios_base::Init" = type { i8 }
%"class.std::basic_istream" = type { i32 (...)**, i64, %"class.std::basic_ios" }
%"class.std::basic_ios" = type { %"class.std::ios_base", %"class.std::basic_ostream"*, i8, i8, %"class.std::basic_streambuf"*, %"class.std::ctype"*, %"class.std::num_put"*, %"class.std::num_get"* }
%"class.std::ios_base" = type { i32 (...)**, i64, i64, i32, i32, i32, %"struct.std::ios_base::_Callback_list"*, %"struct.std::ios_base::_Words", [8 x %"struct.std::ios_base::_Words"], i32, %"struct.std::ios_base::_Words"*, %"class.std::locale" }
%"struct.std::ios_base::_Callback_list" = type { %"struct.std::ios_base::_Callback_list"*, void (i32, %"class.std::ios_base"*, i32)*, i32, i32 }
%"struct.std::ios_base::_Words" = type { i8*, i64 }
%"class.std::locale" = type { %"class.std::locale::_Impl"* }
%"class.std::locale::_Impl" = type { i32, %"class.std::locale::facet"**, i64, %"class.std::locale::facet"**, i8** }
%"class.std::locale::facet" = type <{ i32 (...)**, i32, [4 x i8] }>
%"class.std::basic_ostream" = type { i32 (...)**, %"class.std::basic_ios" }
%"class.std::basic_streambuf" = type { i32 (...)**, i8*, i8*, i8*, i8*, i8*, i8*, %"class.std::locale" }
%"class.std::ctype" = type <{ %"class.std::locale::facet.base", [4 x i8], %struct.__locale_struct*, i8, [7 x i8], i32*, i32*, i16*, i8, [256 x i8], [256 x i8], i8, [6 x i8] }>
%"class.std::locale::facet.base" = type <{ i32 (...)**, i32 }>
%struct.__locale_struct = type { [13 x %struct.__locale_data*], i16*, i32*, i32*, [13 x i8*] }
%struct.__locale_data = type opaque
%"class.std::num_put" = type { %"class.std::locale::facet.base", [4 x i8] }
%"class.std::num_get" = type { %"class.std::locale::facet.base", [4 x i8] }

@_ZStL8__ioinit = internal global %"class.std::ios_base::Init" zeroinitializer, align 1
@__dso_handle = external hidden global i8
@_ZSt3cin = external global %"class.std::basic_istream", align 8
@_ZSt4cout = external global %"class.std::basic_ostream", align 8
@llvm.global_ctors = appending global [1 x { i32, void ()*, i8* }] [{ i32, void ()*, i8* } { i32 65535, void ()* @_GLOBAL__sub_I_1313.cpp, i8* null }]

declare void @_ZNSt8ios_base4InitC1Ev(%"class.std::ios_base::Init"* nonnull align 1 dereferenceable(1)) unnamed_addr #0

; Function Attrs: nounwind
declare void @_ZNSt8ios_base4InitD1Ev(%"class.std::ios_base::Init"* nonnull align 1 dereferenceable(1)) unnamed_addr #1

; Function Attrs: nofree nounwind
declare i32 @__cxa_atexit(void (i8*)*, i8*, i8*) local_unnamed_addr #2

; Function Attrs: mustprogress nofree nosync nounwind sspstrong uwtable willreturn
define dso_local i32 @_Z8convert1c(i8 signext %0) local_unnamed_addr #3 {
  %2 = add i8 %0, -48
  %3 = icmp ult i8 %2, 10
  br i1 %3, label %10, label %4

4:                                                ; preds = %1
  %5 = add i8 %0, -97
  %6 = icmp ult i8 %5, 26
  br i1 %6, label %10, label %7

7:                                                ; preds = %4
  %8 = icmp ugt i8 %0, 64
  tail call void @llvm.assume(i1 %8)
  %9 = icmp ult i8 %0, 91
  tail call void @llvm.assume(i1 %9)
  br label %10

10:                                               ; preds = %4, %1, %7
  %11 = phi i32 [ -55, %7 ], [ -48, %1 ], [ -87, %4 ]
  %12 = sext i8 %0 to i32
  %13 = add nsw i32 %11, %12
  ret i32 %13
}

; Function Attrs: mustprogress nofree norecurse nosync nounwind readnone sspstrong uwtable willreturn
define dso_local signext i8 @_Z8convert2i(i32 %0) local_unnamed_addr #4 {
  %2 = icmp ult i32 %0, 10
  %3 = trunc i32 %0 to i8
  %4 = select i1 %2, i8 48, i8 55
  %5 = add i8 %4, %3
  ret i8 %5
}

; Function Attrs: mustprogress norecurse sspstrong uwtable
define dso_local i32 @main() local_unnamed_addr #5 {
  %1 = alloca i8, align 1
  %2 = alloca i32, align 4
  %3 = alloca i32, align 4
  %4 = alloca [100 x i8], align 16
  %5 = alloca [100 x i32], align 16
  %6 = bitcast i32* %2 to i8*
  call void @llvm.lifetime.start.p0i8(i64 4, i8* nonnull %6) #10
  %7 = bitcast i32* %3 to i8*
  call void @llvm.lifetime.start.p0i8(i64 4, i8* nonnull %7) #10
  %8 = getelementptr inbounds [100 x i8], [100 x i8]* %4, i64 0, i64 0
  call void @llvm.lifetime.start.p0i8(i64 100, i8* nonnull %8) #10
  %9 = bitcast [100 x i32]* %5 to i8*
  call void @llvm.lifetime.start.p0i8(i64 400, i8* nonnull %9) #10
  %10 = call nonnull align 8 dereferenceable(16) %"class.std::basic_istream"* @_ZNSirsERi(%"class.std::basic_istream"* nonnull align 8 dereferenceable(16) @_ZSt3cin, i32* nonnull align 4 dereferenceable(4) %2)
  call void @_ZSt17__istream_extractRSiPcl(%"class.std::basic_istream"* nonnull align 8 dereferenceable(16) %10, i8* nonnull %8, i64 100)
  %11 = call nonnull align 8 dereferenceable(16) %"class.std::basic_istream"* @_ZNSirsERi(%"class.std::basic_istream"* nonnull align 8 dereferenceable(16) %10, i32* nonnull align 4 dereferenceable(4) %3)
  %12 = call i64 @strlen(i8* noundef nonnull %8) #11
  %13 = trunc i64 %12 to i32
  %14 = load i32, i32* %2, align 4
  %15 = icmp sgt i32 %13, 0
  br i1 %15, label %16, label %18

16:                                               ; preds = %0
  %17 = and i64 %12, 4294967295
  br label %23

18:                                               ; preds = %40, %0
  %19 = phi i64 [ 0, %0 ], [ %46, %40 ]
  %20 = load i32, i32* %3, align 4, !tbaa !5
  %21 = sext i32 %20 to i64
  %22 = icmp slt i64 %19, %21
  br i1 %22, label %61, label %50

23:                                               ; preds = %16, %40
  %24 = phi i64 [ %17, %16 ], [ %49, %40 ]
  %25 = phi i32 [ %13, %16 ], [ %28, %40 ]
  %26 = phi i64 [ 0, %16 ], [ %46, %40 ]
  %27 = phi i32 [ 1, %16 ], [ %47, %40 ]
  %28 = add nsw i32 %25, -1
  %29 = zext i32 %28 to i64
  %30 = getelementptr inbounds [100 x i8], [100 x i8]* %4, i64 0, i64 %29
  %31 = load i8, i8* %30, align 1, !tbaa !9
  %32 = add i8 %31, -48
  %33 = icmp ult i8 %32, 10
  br i1 %33, label %40, label %34

34:                                               ; preds = %23
  %35 = add i8 %31, -97
  %36 = icmp ult i8 %35, 26
  br i1 %36, label %40, label %37

37:                                               ; preds = %34
  %38 = icmp ugt i8 %31, 64
  call void @llvm.assume(i1 %38) #10
  %39 = icmp ult i8 %31, 91
  call void @llvm.assume(i1 %39) #10
  br label %40

40:                                               ; preds = %23, %34, %37
  %41 = phi i32 [ -55, %37 ], [ -48, %23 ], [ -87, %34 ]
  %42 = zext i8 %31 to i32
  %43 = add nsw i32 %41, %42
  %44 = mul nsw i32 %43, %27
  %45 = sext i32 %44 to i64
  %46 = add nsw i64 %26, %45
  %47 = mul nsw i32 %14, %27
  %48 = icmp sgt i64 %24, 1
  %49 = add nsw i64 %24, -1
  br i1 %48, label %23, label %18, !llvm.loop !10

50:                                               ; preds = %18, %50
  %51 = phi i64 [ %56, %50 ], [ 1, %18 ]
  %52 = phi i64 [ %57, %50 ], [ %19, %18 ]
  %53 = srem i64 %52, %21
  %54 = trunc i64 %53 to i32
  %55 = getelementptr inbounds [100 x i32], [100 x i32]* %5, i64 0, i64 %51
  store i32 %54, i32* %55, align 4, !tbaa !5
  %56 = add nuw i64 %51, 1
  %57 = sdiv i64 %52, %21
  %58 = icmp slt i64 %57, %21
  br i1 %58, label %59, label %50, !llvm.loop !12

59:                                               ; preds = %50
  %60 = and i64 %56, 4294967295
  br label %61

61:                                               ; preds = %59, %18
  %62 = phi i64 [ 1, %18 ], [ %60, %59 ]
  %63 = phi i64 [ %19, %18 ], [ %57, %59 ]
  %64 = trunc i64 %63 to i32
  %65 = getelementptr inbounds [100 x i32], [100 x i32]* %5, i64 0, i64 %62
  store i32 %64, i32* %65, align 4, !tbaa !5
  %66 = icmp ult i32 %64, 10
  %67 = trunc i64 %63 to i8
  %68 = select i1 %66, i8 48, i8 55
  %69 = add i8 %68, %67
  call void @llvm.lifetime.start.p0i8(i64 1, i8* nonnull %1)
  store i8 %69, i8* %1, align 1, !tbaa !9
  %70 = call nonnull align 8 dereferenceable(8) %"class.std::basic_ostream"* @_ZSt16__ostream_insertIcSt11char_traitsIcEERSt13basic_ostreamIT_T0_ES6_PKS3_l(%"class.std::basic_ostream"* nonnull align 8 dereferenceable(8) @_ZSt4cout, i8* nonnull %1, i64 1)
  call void @llvm.lifetime.end.p0i8(i64 1, i8* nonnull %1)
  %71 = trunc i64 %62 to i32
  %72 = icmp sgt i32 %71, 1
  br i1 %72, label %73, label %85, !llvm.loop !13

73:                                               ; preds = %61, %73
  %74 = phi i64 [ %75, %73 ], [ %62, %61 ]
  %75 = add nsw i64 %74, -1
  %76 = getelementptr inbounds [100 x i32], [100 x i32]* %5, i64 0, i64 %75
  %77 = load i32, i32* %76, align 4, !tbaa !5
  %78 = icmp ult i32 %77, 10
  %79 = trunc i32 %77 to i8
  %80 = select i1 %78, i8 48, i8 55
  %81 = add i8 %80, %79
  call void @llvm.lifetime.start.p0i8(i64 1, i8* nonnull %1)
  store i8 %81, i8* %1, align 1, !tbaa !9
  %82 = call nonnull align 8 dereferenceable(8) %"class.std::basic_ostream"* @_ZSt16__ostream_insertIcSt11char_traitsIcEERSt13basic_ostreamIT_T0_ES6_PKS3_l(%"class.std::basic_ostream"* nonnull align 8 dereferenceable(8) @_ZSt4cout, i8* nonnull %1, i64 1)
  call void @llvm.lifetime.end.p0i8(i64 1, i8* nonnull %1)
  %83 = trunc i64 %75 to i32
  %84 = icmp sgt i32 %83, 1
  br i1 %84, label %73, label %85, !llvm.loop !13

85:                                               ; preds = %73, %61
  call void @llvm.lifetime.end.p0i8(i64 400, i8* nonnull %9) #10
  call void @llvm.lifetime.end.p0i8(i64 100, i8* nonnull %8) #10
  call void @llvm.lifetime.end.p0i8(i64 4, i8* nonnull %7) #10
  call void @llvm.lifetime.end.p0i8(i64 4, i8* nonnull %6) #10
  ret i32 0
}

; Function Attrs: argmemonly mustprogress nofree nosync nounwind willreturn
declare void @llvm.lifetime.start.p0i8(i64 immarg, i8* nocapture) #6

declare nonnull align 8 dereferenceable(16) %"class.std::basic_istream"* @_ZNSirsERi(%"class.std::basic_istream"* nonnull align 8 dereferenceable(16), i32* nonnull align 4 dereferenceable(4)) local_unnamed_addr #0

; Function Attrs: argmemonly mustprogress nofree nounwind readonly willreturn
declare i64 @strlen(i8* nocapture) local_unnamed_addr #7

; Function Attrs: argmemonly mustprogress nofree nosync nounwind willreturn
declare void @llvm.lifetime.end.p0i8(i64 immarg, i8* nocapture) #6

declare void @_ZSt17__istream_extractRSiPcl(%"class.std::basic_istream"* nonnull align 8 dereferenceable(16), i8*, i64) local_unnamed_addr #0

declare nonnull align 8 dereferenceable(8) %"class.std::basic_ostream"* @_ZSt16__ostream_insertIcSt11char_traitsIcEERSt13basic_ostreamIT_T0_ES6_PKS3_l(%"class.std::basic_ostream"* nonnull align 8 dereferenceable(8), i8*, i64) local_unnamed_addr #0

; Function Attrs: sspstrong uwtable
define internal void @_GLOBAL__sub_I_1313.cpp() #8 section ".text.startup" {
  tail call void @_ZNSt8ios_base4InitC1Ev(%"class.std::ios_base::Init"* nonnull align 1 dereferenceable(1) @_ZStL8__ioinit)
  %1 = tail call i32 @__cxa_atexit(void (i8*)* bitcast (void (%"class.std::ios_base::Init"*)* @_ZNSt8ios_base4InitD1Ev to void (i8*)*), i8* getelementptr inbounds (%"class.std::ios_base::Init", %"class.std::ios_base::Init"* @_ZStL8__ioinit, i64 0, i32 0), i8* nonnull @__dso_handle) #10
  ret void
}

; Function Attrs: inaccessiblememonly nofree nosync nounwind willreturn
declare void @llvm.assume(i1 noundef) #9


!llvm.module.flags = !{!0, !1, !2, !3}
!llvm.ident = !{!4}

!0 = !{i32 1, !"wchar_size", i32 4}
!1 = !{i32 7, !"PIC Level", i32 2}
!2 = !{i32 7, !"PIE Level", i32 2}
!3 = !{i32 7, !"uwtable", i32 1}
!4 = !{!"clang version 13.0.0"}
!5 = !{!6, !6, i64 0}
!6 = !{!"int", !7, i64 0}
!7 = !{!"omnipotent char", !8, i64 0}
!8 = !{!"Simple C++ TBAA"}
!9 = !{!7, !7, i64 0}
!10 = distinct !{!10, !11}
!11 = !{!"llvm.loop.mustprogress"}
!12 = distinct !{!12, !11}
!13 = distinct !{!13, !11}
